target datalayout = "e-m:e-p270:32:32-p271:32:32-p272:64:64-i64:64-i128:128-f80:128-n8:16:32:64-S128"
target triple = "x86_64-pc-linux-gnu"

%struct.buf_t = type { i32, ptr, i32, i32, i8, i8 }
%struct.sbcast_cred = type { i64, %struct.sbcast_cred_arg_t, ptr, ptr, i8 }
%struct.sbcast_cred_arg_t = type { i32, i32, i32, ptr, i64, ptr }

@.str.4 = private unnamed_addr constant [18 x i8] c"%s: failed decode\00", align 1
@.str.7 = private unnamed_addr constant [32 x i8] c"%s: sbcast_cred_unpack() failed\00", align 1
@__func__.sbcast_p_unpack = private unnamed_addr constant [16 x i8] c"sbcast_p_unpack\00", align 1
@.str.8 = private unnamed_addr constant [30 x i8] c"%s: sbcast credential expired\00", align 1
@__func__._verify_signature = private unnamed_addr constant [18 x i8] c"_verify_signature\00", align 1

; Function Attrs: nounwind uwtable
define internal i32 @_verify_signature(ptr noundef %0, i32 noundef %1, ptr noundef %2) #0 {
  %4 = alloca i32, align 4
  %5 = alloca ptr, align 8
  %6 = alloca i32, align 4
  %7 = alloca ptr, align 8
  %8 = alloca i32, align 4
  %9 = alloca i8, align 1
  %10 = alloca ptr, align 8
  %11 = alloca i32, align 4
  store ptr %0, ptr %5, align 8
  store i32 %1, ptr %6, align 4
  store ptr %2, ptr %7, align 8
  call void @llvm.lifetime.start.p0(i64 4, ptr %8) #5
  store i32 0, ptr %8, align 4
  call void @llvm.lifetime.start.p0(i64 1, ptr %9) #5
  store i8 0, ptr %9, align 1
  call void @llvm.lifetime.start.p0(i64 8, ptr %10) #5
  store ptr null, ptr %10, align 8
  %12 = load ptr, ptr %7, align 8
  %13 = load i8, ptr %9, align 1, !range !8, !noundef !9
  %14 = trunc i8 %13 to i1
  %15 = call i32 @_decode(ptr noundef %12, i1 noundef zeroext %14, ptr noundef %10, ptr noundef null)
  store i32 %15, ptr %8, align 4
  %16 = icmp ne i32 %15, 0
  br i1 %16, label %17, label %20

17:                                               ; preds = %3
  %18 = call i32 (ptr, ...) @slurm_error(ptr noundef @.str.4, ptr noundef @__func__._verify_signature)
  %19 = load i32, ptr %8, align 4
  store i32 %19, ptr %4, align 4
  store i32 1, ptr %11, align 4
  br label %45

20:                                               ; preds = %3
  %21 = load i32, ptr %6, align 4
  %22 = load ptr, ptr %10, align 8
  %23 = getelementptr inbounds nuw %struct.buf_t, ptr %22, i32 0, i32 2
  %24 = load i32, ptr %23, align 8
  %25 = icmp ne i32 %21, %24
  br i1 %25, label %26, label %27

26:                                               ; preds = %20
  store i32 5001, ptr %8, align 4
  br label %40

27:                                               ; preds = %20
  %28 = load ptr, ptr %5, align 8
  %29 = load ptr, ptr %10, align 8
  %30 = getelementptr inbounds nuw %struct.buf_t, ptr %29, i32 0, i32 1
  %31 = load ptr, ptr %30, align 8
  %32 = load ptr, ptr %10, align 8
  %33 = getelementptr inbounds nuw %struct.buf_t, ptr %32, i32 0, i32 2
  %34 = load i32, ptr %33, align 8
  %35 = zext i32 %34 to i64
  %36 = call i32 @memcmp(ptr noundef %28, ptr noundef %31, i64 noundef %35) #6
  %37 = icmp ne i32 %36, 0
  br i1 %37, label %38, label %39

38:                                               ; preds = %27
  store i32 5000, ptr %8, align 4
  br label %39

39:                                               ; preds = %38, %27
  br label %40

40:                                               ; preds = %39, %26
  %41 = load ptr, ptr %10, align 8
  %42 = getelementptr inbounds nuw %struct.buf_t, ptr %41, i32 0, i32 1
  %43 = load ptr, ptr %42, align 8
  call void @free(ptr noundef %43) #5
  call void @slurm_xfree(ptr noundef %10)
  %44 = load i32, ptr %8, align 4
  store i32 %44, ptr %4, align 4
  store i32 1, ptr %11, align 4
  br label %45

45:                                               ; preds = %40, %17
  call void @llvm.lifetime.end.p0(i64 8, ptr %10) #5
  call void @llvm.lifetime.end.p0(i64 1, ptr %9) #5
  call void @llvm.lifetime.end.p0(i64 4, ptr %8) #5
  %46 = load i32, ptr %4, align 4
  ret i32 %46
}

; Function Attrs: nounwind uwtable
define dso_local ptr @sbcast_p_unpack(ptr noundef %0, i1 noundef zeroext %1, i16 noundef zeroext %2) #0 {
  %4 = alloca ptr, align 8
  %5 = alloca ptr, align 8
  %6 = alloca i8, align 1
  %7 = alloca i16, align 2
  %8 = alloca ptr, align 8
  %9 = alloca i32, align 4
  %10 = alloca i32, align 4
  %11 = alloca i32, align 4
  store ptr %0, ptr %5, align 8
  %12 = zext i1 %1 to i8
  store i8 %12, ptr %6, align 1
  store i16 %2, ptr %7, align 2
  call void @llvm.lifetime.start.p0(i64 8, ptr %8) #5
  call void @llvm.lifetime.start.p0(i64 4, ptr %9) #5
  %13 = load ptr, ptr %5, align 8
  %14 = getelementptr inbounds nuw %struct.buf_t, ptr %13, i32 0, i32 3
  %15 = load i32, ptr %14, align 4
  store i32 %15, ptr %9, align 4
  call void @llvm.lifetime.start.p0(i64 4, ptr %10) #5
  store i32 0, ptr %10, align 4
  %16 = load ptr, ptr %5, align 8
  %17 = load i16, ptr %7, align 2
  %18 = call ptr @sbcast_cred_unpack(ptr noundef %16, ptr noundef %10, i16 noundef zeroext %17)
  store ptr %18, ptr %8, align 8
  %19 = icmp ne ptr %18, null
  br i1 %19, label %22, label %20

20:                                               ; preds = %3
  %21 = call i32 (ptr, ...) @slurm_error(ptr noundef @.str.7, ptr noundef @__func__.sbcast_p_unpack)
  store ptr null, ptr %4, align 8
  store i32 1, ptr %11, align 4
  br label %55

22:                                               ; preds = %3
  %23 = load i8, ptr %6, align 1, !range !8, !noundef !9
  %24 = trunc i8 %23 to i1
  br i1 %24, label %25, label %53

25:                                               ; preds = %22
  %26 = call i64 @time(ptr noundef null) #5
  %27 = load ptr, ptr %8, align 8
  %28 = getelementptr inbounds nuw %struct.sbcast_cred, ptr %27, i32 0, i32 1
  %29 = getelementptr inbounds nuw %struct.sbcast_cred_arg_t, ptr %28, i32 0, i32 4
  %30 = load i64, ptr %29, align 8
  %31 = icmp sgt i64 %26, %30
  br i1 %31, label %32, label %35

32:                                               ; preds = %25
  %33 = call i32 (ptr, ...) @slurm_error(ptr noundef @.str.8, ptr noundef @__func__.sbcast_p_unpack)
  %34 = load ptr, ptr %8, align 8
  call void @delete_sbcast_cred(ptr noundef %34)
  store ptr null, ptr %4, align 8
  store i32 1, ptr %11, align 4
  br label %55

35:                                               ; preds = %25
  %36 = load ptr, ptr %5, align 8
  %37 = getelementptr inbounds nuw %struct.buf_t, ptr %36, i32 0, i32 1
  %38 = load ptr, ptr %37, align 8
  %39 = load i32, ptr %9, align 4
  %40 = zext i32 %39 to i64
  %41 = getelementptr inbounds nuw i8, ptr %38, i64 %40
  %42 = load i32, ptr %10, align 4
  %43 = load ptr, ptr %8, align 8
  %44 = getelementptr inbounds nuw %struct.sbcast_cred, ptr %43, i32 0, i32 3
  %45 = load ptr, ptr %44, align 8
  %46 = call i32 @_verify_signature(ptr noundef %41, i32 noundef %42, ptr noundef %45)
  %47 = icmp ne i32 %46, 0
  br i1 %47, label %48, label %50

48:                                               ; preds = %35
  %49 = load ptr, ptr %8, align 8
  call void @delete_sbcast_cred(ptr noundef %49)
  store ptr null, ptr %4, align 8
  store i32 1, ptr %11, align 4
  br label %55

50:                                               ; preds = %35
  %51 = load ptr, ptr %8, align 8
  %52 = getelementptr inbounds nuw %struct.sbcast_cred, ptr %51, i32 0, i32 4
  store i8 1, ptr %52, align 8
  br label %53

53:                                               ; preds = %50, %22
  %54 = load ptr, ptr %8, align 8
  store ptr %54, ptr %4, align 8
  store i32 1, ptr %11, align 4
  br label %55

55:                                               ; preds = %53, %48, %32, %20
  call void @llvm.lifetime.end.p0(i64 4, ptr %10) #5
  call void @llvm.lifetime.end.p0(i64 4, ptr %9) #5
  call void @llvm.lifetime.end.p0(i64 8, ptr %8) #5
  %56 = load ptr, ptr %4, align 8
  ret ptr %56
}