; Function Attrs: nounwind uwtable
define dso_local ptr @sbcast_p_unpack(ptr noundef %0, i1 noundef zeroext %1, i16 noundef zeroext %2) local_unnamed_addr #0 {
  %4 = alloca ptr, align 8
  %5 = alloca i32, align 4
  %6 = getelementptr inbounds nuw i8, ptr %0, i64 20
  %7 = load i32, ptr %6, align 4
  call void @llvm.lifetime.start.p0(i64 4, ptr nonnull %5) #7
  store i32 0, ptr %5, align 4
  %8 = call ptr @sbcast_cred_unpack(ptr noundef %0, ptr noundef nonnull %5, i16 noundef zeroext %2) #7
  %.not = icmp eq ptr %8, null
  br i1 %.not, label %9, label %11

9:                                                ; preds = %3
  %10 = call i32 (ptr, ...) @slurm_error(ptr noundef nonnull @.str.7, ptr noundef nonnull @__func__.sbcast_p_unpack) #7
  br label %39

11:                                               ; preds = %3
  br i1 %1, label %12, label %39

12:                                               ; preds = %11
  %13 = call i64 @time(ptr noundef null) #7
  %14 = getelementptr inbounds nuw i8, ptr %8, i64 32
  %15 = load i64, ptr %14, align 8
  %16 = icmp sgt i64 %13, %15
  br i1 %16, label %17, label %19

17:                                               ; preds = %12
  %18 = call i32 (ptr, ...) @slurm_error(ptr noundef nonnull @.str.8, ptr noundef nonnull @__func__.sbcast_p_unpack) #7
  call void @delete_sbcast_cred(ptr noundef nonnull %8) #7
  br label %39

19:                                               ; preds = %12
  %20 = getelementptr inbounds nuw i8, ptr %0, i64 8
  %21 = load ptr, ptr %20, align 8
  %22 = zext i32 %7 to i64
  %23 = getelementptr inbounds nuw i8, ptr %21, i64 %22
  %24 = load i32, ptr %5, align 4
  %25 = getelementptr inbounds nuw i8, ptr %8, i64 56
  %26 = load ptr, ptr %25, align 8
  call void @llvm.lifetime.start.p0(i64 8, ptr nonnull %4) #7
  store ptr null, ptr %4, align 8
  %27 = call fastcc i32 @_decode(ptr noundef %26, i1 noundef zeroext false, ptr noundef %4, ptr noundef null)
  %.not.i = icmp eq i32 %27, 0
  br i1 %.not.i, label %29, label %.critedge

.critedge:                                        ; preds = %19
  %28 = call i32 (ptr, ...) @slurm_error(ptr noundef nonnull @.str.4, ptr noundef nonnull @__func__._verify_signature) #7
  br label %.sink.split

29:                                               ; preds = %19
  %30 = load ptr, ptr %4, align 8
  %31 = getelementptr inbounds nuw i8, ptr %30, i64 16
  %32 = load i32, ptr %31, align 8
  %.not9.i = icmp eq i32 %24, %32
  %33 = getelementptr inbounds nuw i8, ptr %30, i64 8
  %34 = load ptr, ptr %33, align 8
  br i1 %.not9.i, label %._crit_edge.i, label %.critedge14

._crit_edge.i:                                    ; preds = %29
  %35 = zext i32 %24 to i64
  %bcmp.i = call i32 @bcmp(ptr readonly %23, ptr %34, i64 %35)
  %.not10.i = icmp eq i32 %bcmp.i, 0
  call void @free(ptr noundef %34) #7
  call void @slurm_xfree(ptr noundef nonnull %4) #7
  call void @llvm.lifetime.end.p0(i64 8, ptr nonnull %4) #7
  br i1 %.not10.i, label %37, label %36

.critedge14:                                      ; preds = %29
  call void @free(ptr noundef %34) #7
  call void @slurm_xfree(ptr noundef nonnull %4) #7
  br label %.sink.split

.sink.split:                                      ; preds = %.critedge, %.critedge14
  call void @llvm.lifetime.end.p0(i64 8, ptr nonnull %4) #7
  br label %36

36:                                               ; preds = %.sink.split, %._crit_edge.i
  call void @delete_sbcast_cred(ptr noundef nonnull %8) #7
  br label %39

37:                                               ; preds = %._crit_edge.i
  %38 = getelementptr inbounds nuw i8, ptr %8, i64 64
  store i8 1, ptr %38, align 8
  br label %39

39:                                               ; preds = %11, %37, %36, %17, %9
  %.0 = phi ptr [ null, %17 ], [ null, %36 ], [ null, %9 ], [ %8, %37 ], [ %8, %11 ]
  call void @llvm.lifetime.end.p0(i64 4, ptr nonnull %5) #7
  ret ptr %.0
}